target datalayout = "e-m:e-p270:32:32-p271:32:32-p272:64:64-i64:64-i128:128-f80:128-n8:16:32:64-S128"
target triple = "x86_64-pc-linux-gnu"

%struct.VHeader_ = type { i32, i32, [0 x i8] }
%struct.Library = type { ptr, ptr, ptr, ptr, ptr, ptr }
%struct.JSONObject_ = type { i32, %union.anon }
%union.anon = type { %struct.anon.4 }
%struct.anon.4 = type { ptr, ptr, i64 }
%struct.anon.3 = type { ptr, i64 }

@.str.20 = private unnamed_addr constant [42 x i8] c"Expected an array value for '%s' in '%s'.\00", align 1
@.str.21 = private unnamed_addr constant [45 x i8] c"Expected only strings in array '%s' in '%s'.\00", align 1

; Function Attrs: nounwind uwtable
define internal ptr @expand_(ptr noundef %0, i64 noundef %1) #0 {
  %3 = alloca ptr, align 8
  %4 = alloca i64, align 8
  %5 = alloca ptr, align 8
  %6 = alloca ptr, align 8
  %7 = alloca i64, align 8
  store ptr %0, ptr %3, align 8
  store i64 %1, ptr %4, align 8
  %8 = load ptr, ptr %3, align 8
  %9 = icmp ne ptr %8, null
  br i1 %9, label %13, label %10

10:                                               ; preds = %2
  %11 = load i64, ptr %4, align 8
  %12 = call ptr @vec_new_(i64 noundef %11, i64 noundef 8)
  store ptr %12, ptr %5, align 8
  br label %16

13:                                               ; preds = %2
  %14 = load ptr, ptr %3, align 8
  %15 = getelementptr inbounds %struct.VHeader_, ptr %14, i64 -1
  store ptr %15, ptr %5, align 8
  br label %16

16:                                               ; preds = %13, %10
  %17 = load ptr, ptr %5, align 8
  %18 = getelementptr inbounds %struct.VHeader_, ptr %17, i32 0, i32 0
  %19 = load i32, ptr %18, align 4
  %20 = load ptr, ptr %5, align 8
  %21 = getelementptr inbounds %struct.VHeader_, ptr %20, i32 0, i32 1
  %22 = load i32, ptr %21, align 4
  %23 = icmp eq i32 %19, %22
  br i1 %23, label %24, label %49

24:                                               ; preds = %16
  %25 = load i64, ptr %4, align 8
  %26 = load ptr, ptr %5, align 8
  %27 = getelementptr inbounds %struct.VHeader_, ptr %26, i32 0, i32 1
  %28 = load i32, ptr %27, align 4
  %29 = shl i32 %28, 1
  %30 = zext i32 %29 to i64
  %31 = call ptr @vec_new_(i64 noundef %25, i64 noundef %30)
  store ptr %31, ptr %6, align 8
  %32 = load i64, ptr %4, align 8
  %33 = load ptr, ptr %5, align 8
  %34 = getelementptr inbounds %struct.VHeader_, ptr %33, i32 0, i32 1
  %35 = load i32, ptr %34, align 4
  %36 = zext i32 %35 to i64
  %37 = mul i64 %32, %36
  %38 = add i64 %37, 8
  store i64 %38, ptr %7, align 8
  %39 = load ptr, ptr %6, align 8
  %40 = load ptr, ptr %5, align 8
  %41 = load i64, ptr %7, align 8
  call void @llvm.memcpy.p0.p0.i64(ptr align 4 %39, ptr align 4 %40, i64 %41, i1 false)
  %42 = load ptr, ptr %6, align 8
  store ptr %42, ptr %5, align 8
  %43 = load ptr, ptr %5, align 8
  %44 = getelementptr inbounds %struct.VHeader_, ptr %43, i32 0, i32 1
  %45 = load i32, ptr %44, align 4
  %46 = shl i32 %45, 1
  %47 = load ptr, ptr %6, align 8
  %48 = getelementptr inbounds %struct.VHeader_, ptr %47, i32 0, i32 1
  store i32 %46, ptr %48, align 4
  br label %49

49:                                               ; preds = %24, %16
  %50 = load ptr, ptr %5, align 8
  %51 = getelementptr inbounds %struct.VHeader_, ptr %50, i32 0, i32 0
  %52 = load i32, ptr %51, align 4
  %53 = add i32 %52, 1
  store i32 %53, ptr %51, align 4
  %54 = load ptr, ptr %5, align 8
  %55 = getelementptr inbounds %struct.VHeader_, ptr %54, i64 1
  ret ptr %55
}

; Function Attrs: nounwind uwtable
define internal ptr @vec_new_(i64 noundef %0, i64 noundef %1) #0 {
  %3 = alloca i64, align 8
  %4 = alloca i64, align 8
  %5 = alloca ptr, align 8
  store i64 %0, ptr %3, align 8
  store i64 %1, ptr %4, align 8
  %6 = load i64, ptr %3, align 8
  %7 = load i64, ptr %4, align 8
  %8 = mul i64 %6, %7
  %9 = add i64 %8, 8
  %10 = call ptr @calloc_arena(i64 noundef %9)
  store ptr %10, ptr %5, align 8
  %11 = load i64, ptr %4, align 8
  %12 = trunc i64 %11 to i32
  %13 = load ptr, ptr %5, align 8
  %14 = getelementptr inbounds %struct.VHeader_, ptr %13, i32 0, i32 1
  store i32 %12, ptr %14, align 4
  %15 = load ptr, ptr %5, align 8
  ret ptr %15
}

; Function Attrs: nounwind uwtable
define internal ptr @get_optional_string_array(ptr noundef %0, ptr noundef %1, ptr noundef %2) #0 {
  %4 = alloca ptr, align 8
  %5 = alloca ptr, align 8
  %6 = alloca ptr, align 8
  %7 = alloca ptr, align 8
  %8 = alloca ptr, align 8
  %9 = alloca i32, align 4
  %10 = alloca ptr, align 8
  store ptr %0, ptr %5, align 8
  store ptr %1, ptr %6, align 8
  store ptr %2, ptr %7, align 8
  %11 = load ptr, ptr %6, align 8
  %12 = load ptr, ptr %7, align 8
  %13 = call ptr @json_obj_get(ptr noundef %11, ptr noundef %12)
  store ptr %13, ptr %8, align 8
  %14 = load ptr, ptr %8, align 8
  %15 = icmp ne ptr %14, null
  br i1 %15, label %17, label %16

16:                                               ; preds = %3
  store ptr null, ptr %4, align 8
  br label %58

17:                                               ; preds = %3
  %18 = load ptr, ptr %8, align 8
  %19 = getelementptr inbounds %struct.JSONObject_, ptr %18, i32 0, i32 0
  %20 = load i32, ptr %19, align 8
  %21 = icmp ne i32 %20, 2
  br i1 %21, label %22, label %26

22:                                               ; preds = %17
  %23 = load ptr, ptr %5, align 8
  %24 = getelementptr inbounds %struct.Library, ptr %23, i32 0, i32 0
  %25 = load ptr, ptr %24, align 8
  call void (ptr, ...) @error_exit(ptr noundef @.str.20, ptr noundef %25) #8
  unreachable

26:                                               ; preds = %17
  store i32 0, ptr %9, align 4
  br label %27

27:                                               ; preds = %53, %26
  %28 = load i32, ptr %9, align 4
  %29 = sext i32 %28 to i64
  %30 = load ptr, ptr %8, align 8
  %31 = getelementptr inbounds %struct.JSONObject_, ptr %30, i32 0, i32 1
  %32 = getelementptr inbounds %struct.anon.3, ptr %31, i32 0, i32 1
  %33 = load i64, ptr %32, align 8
  %34 = icmp ult i64 %29, %33
  br i1 %34, label %35, label %56

35:                                               ; preds = %27
  %36 = load ptr, ptr %8, align 8
  %37 = getelementptr inbounds %struct.JSONObject_, ptr %36, i32 0, i32 1
  %38 = getelementptr inbounds %struct.anon.3, ptr %37, i32 0, i32 0
  %39 = load ptr, ptr %38, align 8
  %40 = load i32, ptr %9, align 4
  %41 = sext i32 %40 to i64
  %42 = getelementptr inbounds ptr, ptr %39, i64 %41
  %43 = load ptr, ptr %42, align 8
  store ptr %43, ptr %10, align 8
  %44 = load ptr, ptr %10, align 8
  %45 = getelementptr inbounds %struct.JSONObject_, ptr %44, i32 0, i32 0
  %46 = load i32, ptr %45, align 8
  %47 = icmp ne i32 %46, 1
  br i1 %47, label %48, label %52

48:                                               ; preds = %35
  %49 = load ptr, ptr %5, align 8
  %50 = getelementptr inbounds %struct.Library, ptr %49, i32 0, i32 0
  %51 = load ptr, ptr %50, align 8
  call void (ptr, ...) @error_exit(ptr noundef @.str.21, ptr noundef %51) #8
  unreachable

52:                                               ; preds = %35
  br label %53

53:                                               ; preds = %52
  %54 = load i32, ptr %9, align 4
  %55 = add nsw i32 %54, 1
  store i32 %55, ptr %9, align 4
  br label %27, !llvm.loop !21

56:                                               ; preds = %27
  %57 = load ptr, ptr %8, align 8
  store ptr %57, ptr %4, align 8
  br label %58

58:                                               ; preds = %56, %16
  %59 = load ptr, ptr %4, align 8
  ret ptr %59
}

; Function Attrs: nounwind uwtable
define internal ptr @get_optional_string_array_as_array(ptr noundef %0, ptr noundef %1, ptr noundef %2) #0 {
  %4 = alloca i32, align 4
  %5 = alloca ptr, align 8
  %6 = alloca ptr, align 8
  %7 = alloca ptr, align 8
  %8 = alloca ptr, align 8
  %9 = alloca ptr, align 8
  %10 = alloca ptr, align 8
  %11 = alloca ptr, align 8
  %12 = alloca ptr, align 8
  %13 = alloca i64, align 8
  %14 = alloca ptr, align 8
  store ptr %0, ptr %8, align 8
  store ptr %1, ptr %9, align 8
  store ptr %2, ptr %10, align 8
  %15 = load ptr, ptr %8, align 8
  %16 = load ptr, ptr %9, align 8
  %17 = load ptr, ptr %10, align 8
  %18 = call ptr @get_optional_string_array(ptr noundef %15, ptr noundef %16, ptr noundef %17)
  store ptr %18, ptr %11, align 8
  %19 = load ptr, ptr %11, align 8
  %20 = icmp ne ptr %19, null
  br i1 %20, label %21, label %27

21:                                               ; preds = %3
  %22 = load ptr, ptr %11, align 8
  %23 = getelementptr inbounds %struct.JSONObject_, ptr %22, i32 0, i32 1
  %24 = getelementptr inbounds %struct.anon.3, ptr %23, i32 0, i32 1
  %25 = load i64, ptr %24, align 8
  %26 = icmp ne i64 %25, 0
  br i1 %26, label %28, label %27

27:                                               ; preds = %21, %3
  store ptr null, ptr %7, align 8
  br label %77

28:                                               ; preds = %21
  %29 = load ptr, ptr %11, align 8
  %30 = getelementptr inbounds %struct.JSONObject_, ptr %29, i32 0, i32 1
  %31 = getelementptr inbounds %struct.anon.3, ptr %30, i32 0, i32 1
  %32 = load i64, ptr %31, align 8
  %33 = call ptr @vec_new_(i64 noundef 8, i64 noundef %32)
  %34 = getelementptr inbounds %struct.VHeader_, ptr %33, i64 1
  store ptr %34, ptr %12, align 8
  store i64 0, ptr %13, align 8
  br label %35

35:                                               ; preds = %72, %28
  %36 = load i64, ptr %13, align 8
  %37 = load ptr, ptr %11, align 8
  %38 = getelementptr inbounds %struct.JSONObject_, ptr %37, i32 0, i32 1
  %39 = getelementptr inbounds %struct.anon.3, ptr %38, i32 0, i32 1
  %40 = load i64, ptr %39, align 8
  %41 = icmp ult i64 %36, %40
  br i1 %41, label %42, label %75

42:                                               ; preds = %35
  br label %43

43:                                               ; preds = %42
  %44 = load ptr, ptr %12, align 8
  %45 = call ptr @expand_(ptr noundef %44, i64 noundef 8)
  store ptr %45, ptr %14, align 8
  %46 = load ptr, ptr %14, align 8
  store ptr %46, ptr %12, align 8
  %47 = load ptr, ptr %11, align 8
  %48 = getelementptr inbounds %struct.JSONObject_, ptr %47, i32 0, i32 1
  %49 = getelementptr inbounds %struct.anon.3, ptr %48, i32 0, i32 0
  %50 = load ptr, ptr %49, align 8
  %51 = load i64, ptr %13, align 8
  %52 = getelementptr inbounds ptr, ptr %50, i64 %51
  %53 = load ptr, ptr %52, align 8
  %54 = getelementptr inbounds %struct.JSONObject_, ptr %53, i32 0, i32 1
  %55 = load ptr, ptr %54, align 8
  %56 = load ptr, ptr %12, align 8
  %57 = load ptr, ptr %12, align 8
  store ptr %57, ptr %5, align 8
  %58 = load ptr, ptr %5, align 8
  %59 = icmp ne ptr %58, null
  br i1 %59, label %61, label %60

60:                                               ; preds = %43
  store i32 0, ptr %4, align 4
  br label %66

61:                                               ; preds = %43
  %62 = load ptr, ptr %5, align 8
  store ptr %62, ptr %6, align 8
  %63 = load ptr, ptr %6, align 8
  %64 = getelementptr inbounds %struct.VHeader_, ptr %63, i64 -1
  %65 = load i32, ptr %64, align 4
  store i32 %65, ptr %4, align 4
  br label %66

66:                                               ; preds = %61, %60
  %67 = load i32, ptr %4, align 4
  %68 = sub i32 %67, 1
  %69 = zext i32 %68 to i64
  %70 = getelementptr inbounds ptr, ptr %56, i64 %69
  store ptr %55, ptr %70, align 8
  br label %71

71:                                               ; preds = %66
  br label %72

72:                                               ; preds = %71
  %73 = load i64, ptr %13, align 8
  %74 = add i64 %73, 1
  store i64 %74, ptr %13, align 8
  br label %35, !llvm.loop !19

75:                                               ; preds = %35
  %76 = load ptr, ptr %12, align 8
  store ptr %76, ptr %7, align 8
  br label %77

77:                                               ; preds = %75, %27
  %78 = load ptr, ptr %7, align 8
  ret ptr %78
}