; Function Attrs: nounwind uwtable
define internal fastcc ptr @get_optional_string_array_as_array(ptr nocapture noundef readonly %0, ptr noundef %1, ptr noundef %2) unnamed_addr #0 {
  %4 = tail call ptr @json_obj_get(ptr noundef %1, ptr noundef %2) #8
  %.not.i = icmp eq ptr %4, null
  br i1 %.not.i, label %get_optional_string_array.exit.thread, label %5

5:                                                ; preds = %3
  %6 = load i32, ptr %4, align 8
  %.not16.i = icmp eq i32 %6, 2
  br i1 %.not16.i, label %.preheader.i, label %11

.preheader.i:                                     ; preds = %5
  %7 = getelementptr inbounds i8, ptr %4, i64 16
  %8 = load i64, ptr %7, align 8
  %.not19.i = icmp eq i64 %8, 0
  br i1 %.not19.i, label %get_optional_string_array.exit.thread, label %.lr.ph.i

.lr.ph.i:                                         ; preds = %.preheader.i
  %9 = getelementptr inbounds i8, ptr %4, i64 8
  %10 = load ptr, ptr %9, align 8
  br label %14

11:                                               ; preds = %5
  %12 = load ptr, ptr %0, align 8
  tail call void (ptr, ...) @error_exit(ptr noundef nonnull @.str.20, ptr noundef %12) #9
  unreachable

13:                                               ; preds = %14
  %indvars.iv.next.i = add nuw i64 %indvars.iv.i, 1
  %exitcond.not.i = icmp eq i64 %indvars.iv.next.i, %8
  br i1 %exitcond.not.i, label %20, label %14, !llvm.loop !10

14:                                               ; preds = %13, %.lr.ph.i
  %indvars.iv.i = phi i64 [ 0, %.lr.ph.i ], [ %indvars.iv.next.i, %13 ]
  %15 = getelementptr inbounds ptr, ptr %10, i64 %indvars.iv.i
  %16 = load ptr, ptr %15, align 8
  %17 = load i32, ptr %16, align 8
  %.not17.i = icmp eq i32 %17, 1
  br i1 %.not17.i, label %13, label %18

18:                                               ; preds = %14
  %19 = load ptr, ptr %0, align 8
  tail call void (ptr, ...) @error_exit(ptr noundef nonnull @.str.21, ptr noundef %19) #9
  unreachable

20:                                               ; preds = %13
  %21 = getelementptr inbounds i8, ptr %4, i64 8
  %22 = shl i64 %8, 3
  %23 = add i64 %22, 8
  %24 = tail call ptr @calloc_arena(i64 noundef %23) #8
  %25 = trunc i64 %8 to i32
  %26 = getelementptr inbounds i8, ptr %24, i64 4
  store i32 %25, ptr %26, align 4
  %27 = getelementptr inbounds i8, ptr %24, i64 8
  %28 = load i64, ptr %7, align 8
  %.not = icmp eq i64 %28, 0
  br i1 %.not, label %get_optional_string_array.exit.thread, label %.lr.ph

.lr.ph:                                           ; preds = %20, %45
  %.02030 = phi i64 [ %56, %45 ], [ 0, %20 ]
  %.02129 = phi ptr [ %48, %45 ], [ %27, %20 ]
  %29 = getelementptr inbounds i8, ptr %.02129, i64 -8
  %.phi.trans.insert.i = getelementptr inbounds i8, ptr %.02129, i64 -4
  %.pre.i = load i32, ptr %.phi.trans.insert.i, align 4
  %30 = load i32, ptr %29, align 4
  %31 = icmp eq i32 %30, %.pre.i
  br i1 %31, label %32, label %45

32:                                               ; preds = %.lr.ph
  %33 = shl i32 %.pre.i, 1
  %34 = zext i32 %33 to i64
  %35 = shl nuw nsw i64 %34, 3
  %36 = or disjoint i64 %35, 8
  %37 = tail call ptr @calloc_arena(i64 noundef %36) #8
  %38 = getelementptr inbounds i8, ptr %37, i64 4
  store i32 %33, ptr %38, align 4
  %39 = load i32, ptr %.phi.trans.insert.i, align 4
  %40 = zext i32 %39 to i64
  %41 = shl nuw nsw i64 %40, 3
  %42 = add nuw nsw i64 %41, 8
  tail call void @llvm.memcpy.p0.p0.i64(ptr noundef nonnull align 4 dereferenceable(1) %37, ptr noundef nonnull align 4 dereferenceable(1) %29, i64 %42, i1 false)
  %43 = load i32, ptr %38, align 4
  %44 = shl i32 %43, 1
  store i32 %44, ptr %38, align 4
  %.pre18.i = load i32, ptr %37, align 4
  br label %45

45:                                               ; preds = %.lr.ph, %32
  %46 = phi i32 [ %.pre18.i, %32 ], [ %30, %.lr.ph ]
  %.1.i = phi ptr [ %37, %32 ], [ %29, %.lr.ph ]
  %47 = add i32 %46, 1
  store i32 %47, ptr %.1.i, align 4
  %48 = getelementptr inbounds i8, ptr %.1.i, i64 8
  %49 = load ptr, ptr %21, align 8
  %50 = getelementptr inbounds ptr, ptr %49, i64 %.02030
  %51 = load ptr, ptr %50, align 8
  %52 = getelementptr inbounds i8, ptr %51, i64 8
  %53 = load ptr, ptr %52, align 8
  %54 = zext i32 %46 to i64
  %55 = getelementptr inbounds ptr, ptr %48, i64 %54
  store ptr %53, ptr %55, align 8
  %56 = add nuw i64 %.02030, 1
  %57 = load i64, ptr %7, align 8
  %58 = icmp ult i64 %56, %57
  br i1 %58, label %.lr.ph, label %get_optional_string_array.exit.thread, !llvm.loop !11

get_optional_string_array.exit.thread:            ; preds = %45, %.preheader.i, %20, %3
  %.022 = phi ptr [ null, %3 ], [ %27, %20 ], [ null, %.preheader.i ], [ %48, %45 ]
  ret ptr %.022
}